ccopy_reg
_reconstructor
p0
(csklearn.svm.classes
LinearSVC
p1
c__builtin__
object
p2
Ntp3
Rp4
(dp5
S'loss'
p6
S'squared_hinge'
p7
sS'C'
p8
F1.0
sS'classes_'
p9
cnumpy.core.multiarray
_reconstruct
p10
(cnumpy
ndarray
p11
(I0
tp12
S'b'
p13
tp14
Rp15
(I1
(I2
tp16
cnumpy
dtype
p17
(S'f8'
p18
I0
I1
tp19
Rp20
(I3
S'<'
p21
NNNI-1
I-1
I0
tp22
bI00
S'\x00\x00\x00\x00\x00\x00\x00\x00\x00\x00\x00\x00\x00\x00\xf0?'
p23
tp24
bsS'verbose'
p25
I0
sS'intercept_scaling'
p26
I1
sS'dual'
p27
I01
sS'fit_intercept'
p28
I01
sS'max_iter'
p29
I1000
sS'n_iter_'
p30
cnumpy.core.multiarray
scalar
p31
(g17
(S'i4'
p32
I0
I1
tp33
Rp34
(I3
S'<'
p35
NNNI-1
I-1
I0
tp36
bS'\xe8\x03\x00\x00'
p37
tp38
Rp39
sS'penalty'
p40
S'l2'
p41
sS'multi_class'
p42
S'ovr'
p43
sS'random_state'
p44
I10
sS'tol'
p45
F0.0001
sS'coef_'
p46
g10
(g11
(I0
tp47
g13
tp48
Rp49
(I1
(I1
I5
tp50
g20
I01
S'\xd6\xad\xf4\x85\x17\xb0b\xbf\xa8Q\xc1?\xd3SB?\xa5\xb3\xdf^N^j?\xae\x94\xa0\xb4u-5?s\nrJ\xd4\xd5\xf6?'
p51
tp52
bsS'intercept_'
p53
g10
(g11
(I0
tp54
g13
tp55
Rp56
(I1
(I1
tp57
g20
I00
S'\xd2\xf91\xd9\xc7\xdf\xef\xbf'
p58
tp59
bsS'class_weight'
p60
Nsb.